; Function Attrs: mustprogress nofree norecurse nosync nounwind willreturn memory(read, inaccessiblemem: none) uwtable
define internal noundef zeroext i1 @"_ZNSt17_Function_handlerIFbRKN4llvm13LegalityQueryEEZNS0_20AArch64LegalizerInfoC1ERKNS0_16AArch64SubtargetEE4$_32E9_M_invokeERKSt9_Any_dataS3_"(ptr nocapture nonnull readnone align 8 %0, ptr nocapture noundef nonnull readonly align 8 dereferenceable(40) %1) #11 align 2 {
  %3 = getelementptr inbounds i8, ptr %1, i64 8
  %.val = load ptr, ptr %3, align 8
  %4 = getelementptr inbounds i8, ptr %.val, i64 8
  %5 = load i64, ptr %4, align 8
  %6 = and i64 %5, 1
  %.not.i.i.i.i = icmp eq i64 %6, 0
  br i1 %.not.i.i.i.i, label %9, label %7

7:                                                ; preds = %2
  %8 = lshr i64 %5, 3
  br label %_ZNK4llvm3LLT19getScalarSizeInBitsEv.exit.i.i.i

9:                                                ; preds = %2
  %10 = and i64 %5, 4
  %.not1.i.i.i.i = icmp eq i64 %10, 0
  br i1 %.not1.i.i.i.i, label %15, label %11

11:                                               ; preds = %9
  %12 = and i64 %5, 2
  %.not2.i.i.i.i = icmp eq i64 %12, 0
  %13 = lshr i64 %5, 19
  %14 = and i64 %13, 65535
  %spec.select.i.i.i.i = select i1 %.not2.i.i.i.i, i64 %13, i64 %14
  br label %_ZNK4llvm3LLT19getScalarSizeInBitsEv.exit.i.i.i

15:                                               ; preds = %9
  %16 = lshr i64 %5, 3
  %17 = and i64 %16, 65535
  br label %_ZNK4llvm3LLT19getScalarSizeInBitsEv.exit.i.i.i

_ZNK4llvm3LLT19getScalarSizeInBitsEv.exit.i.i.i:  ; preds = %15, %11, %7
  %.0.in.i.i.i.i = phi i64 [ %8, %7 ], [ %17, %15 ], [ %spec.select.i.i.i.i, %11 ]
  %.0.i.i.i.i = trunc i64 %.0.in.i.i.i.i to i32
  %18 = icmp ult i32 %.0.i.i.i.i, 65
  br i1 %18, label %19, label %"_ZSt10__invoke_rIbRZN4llvm20AArch64LegalizerInfoC1ERKNS0_16AArch64SubtargetEE4$_32JRKNS0_13LegalityQueryEEENSt9enable_ifIX16is_invocable_r_vIT_T0_DpT1_EESB_E4typeEOSC_DpOSD_.exit"

19:                                               ; preds = %_ZNK4llvm3LLT19getScalarSizeInBitsEv.exit.i.i.i
  %20 = load i64, ptr %.val, align 8
  %21 = and i64 %20, 1
  %.not.i3.i.i.i = icmp eq i64 %21, 0
  br i1 %.not.i3.i.i.i, label %24, label %22

22:                                               ; preds = %19
  %23 = lshr i64 %20, 3
  br label %_ZNK4llvm3LLT19getScalarSizeInBitsEv.exit9.i.i.i

24:                                               ; preds = %19
  %25 = and i64 %20, 4
  %.not1.i6.i.i.i = icmp eq i64 %25, 0
  br i1 %.not1.i6.i.i.i, label %30, label %26

26:                                               ; preds = %24
  %27 = and i64 %20, 2
  %.not2.i7.i.i.i = icmp eq i64 %27, 0
  %28 = lshr i64 %20, 19
  %29 = and i64 %28, 65535
  %spec.select.i8.i.i.i = select i1 %.not2.i7.i.i.i, i64 %28, i64 %29
  br label %_ZNK4llvm3LLT19getScalarSizeInBitsEv.exit9.i.i.i

30:                                               ; preds = %24
  %31 = lshr i64 %20, 3
  %32 = and i64 %31, 65535
  br label %_ZNK4llvm3LLT19getScalarSizeInBitsEv.exit9.i.i.i

_ZNK4llvm3LLT19getScalarSizeInBitsEv.exit9.i.i.i: ; preds = %30, %26, %22
  %.0.in.i4.i.i.i = phi i64 [ %23, %22 ], [ %32, %30 ], [ %spec.select.i8.i.i.i, %26 ]
  %.0.i5.i.i.i = trunc i64 %.0.in.i4.i.i.i to i32
  br i1 %.not.i.i.i.i, label %35, label %33

33:                                               ; preds = %_ZNK4llvm3LLT19getScalarSizeInBitsEv.exit9.i.i.i
  %34 = lshr i64 %5, 3
  br label %_ZNK4llvm3LLT19getScalarSizeInBitsEv.exit16.i.i.i

35:                                               ; preds = %_ZNK4llvm3LLT19getScalarSizeInBitsEv.exit9.i.i.i
  %36 = and i64 %5, 4
  %.not1.i13.i.i.i = icmp eq i64 %36, 0
  br i1 %.not1.i13.i.i.i, label %41, label %37

37:                                               ; preds = %35
  %38 = and i64 %5, 2
  %.not2.i14.i.i.i = icmp eq i64 %38, 0
  %39 = lshr i64 %5, 19
  %40 = and i64 %39, 65535
  %spec.select.i15.i.i.i = select i1 %.not2.i14.i.i.i, i64 %39, i64 %40
  br label %_ZNK4llvm3LLT19getScalarSizeInBitsEv.exit16.i.i.i

41:                                               ; preds = %35
  %42 = lshr i64 %5, 3
  %43 = and i64 %42, 65535
  br label %_ZNK4llvm3LLT19getScalarSizeInBitsEv.exit16.i.i.i

_ZNK4llvm3LLT19getScalarSizeInBitsEv.exit16.i.i.i: ; preds = %41, %37, %33
  %.0.in.i11.i.i.i = phi i64 [ %34, %33 ], [ %43, %41 ], [ %spec.select.i15.i.i.i, %37 ]
  %.0.i12.i.i.i = trunc i64 %.0.in.i11.i.i.i to i32
  %44 = icmp ult i32 %.0.i5.i.i.i, %.0.i12.i.i.i
  br label %"_ZSt10__invoke_rIbRZN4llvm20AArch64LegalizerInfoC1ERKNS0_16AArch64SubtargetEE4$_32JRKNS0_13LegalityQueryEEENSt9enable_ifIX16is_invocable_r_vIT_T0_DpT1_EESB_E4typeEOSC_DpOSD_.exit"

"_ZSt10__invoke_rIbRZN4llvm20AArch64LegalizerInfoC1ERKNS0_16AArch64SubtargetEE4$_32JRKNS0_13LegalityQueryEEENSt9enable_ifIX16is_invocable_r_vIT_T0_DpT1_EESB_E4typeEOSC_DpOSD_.exit": ; preds = %_ZNK4llvm3LLT19getScalarSizeInBitsEv.exit.i.i.i, %_ZNK4llvm3LLT19getScalarSizeInBitsEv.exit16.i.i.i
  %45 = phi i1 [ false, %_ZNK4llvm3LLT19getScalarSizeInBitsEv.exit.i.i.i ], [ %44, %_ZNK4llvm3LLT19getScalarSizeInBitsEv.exit16.i.i.i ]
  ret i1 %45
}